target datalayout = "e-m:e-p270:32:32-p271:32:32-p272:64:64-i64:64-i128:128-f80:128-n8:16:32:64-S128"
target triple = "x86_64-pc-linux-gnu"

%struct.FuncState = type { ptr, ptr, ptr, ptr, ptr, ptr, i32, i32, i32, i32, i32, i32, i16, i8, [60 x %struct.upvaldesc], [200 x i16] }
%struct.upvaldesc = type { i8, i8 }
%struct.Proto = type { ptr, i8, i8, ptr, ptr, ptr, ptr, ptr, ptr, ptr, i32, i32, i32, i32, i32, i32, i32, i32, ptr, i8, i8, i8, i8 }
%struct.LexState = type { i32, i32, i32, %struct.Token, %struct.Token, ptr, ptr, ptr, ptr, ptr, i8 }
%struct.Token = type { i32, %union.SemInfo }
%union.SemInfo = type { double }

; Function Attrs: nounwind uwtable
define hidden i32 @luaK_codeABC(ptr noundef %0, i32 noundef %1, i32 noundef %2, i32 noundef %3, i32 noundef %4) #0 {
  %6 = alloca ptr, align 8
  %7 = alloca i32, align 4
  %8 = alloca i32, align 4
  %9 = alloca i32, align 4
  %10 = alloca i32, align 4
  store ptr %0, ptr %6, align 8, !tbaa !4
  store i32 %1, ptr %7, align 4, !tbaa !9
  store i32 %2, ptr %8, align 4, !tbaa !9
  store i32 %3, ptr %9, align 4, !tbaa !9
  store i32 %4, ptr %10, align 4, !tbaa !9
  %11 = load ptr, ptr %6, align 8, !tbaa !4
  %12 = load i32, ptr %7, align 4, !tbaa !9
  %13 = shl i32 %12, 0
  %14 = load i32, ptr %8, align 4, !tbaa !9
  %15 = shl i32 %14, 6
  %16 = or i32 %13, %15
  %17 = load i32, ptr %9, align 4, !tbaa !9
  %18 = shl i32 %17, 23
  %19 = or i32 %16, %18
  %20 = load i32, ptr %10, align 4, !tbaa !9
  %21 = shl i32 %20, 14
  %22 = or i32 %19, %21
  %23 = load ptr, ptr %6, align 8, !tbaa !4
  %24 = getelementptr inbounds nuw %struct.FuncState, ptr %23, i32 0, i32 3
  %25 = load ptr, ptr %24, align 8, !tbaa !32
  %26 = getelementptr inbounds nuw %struct.LexState, ptr %25, i32 0, i32 2
  %27 = load i32, ptr %26, align 8, !tbaa !33
  %28 = call i32 @luaK_code(ptr noundef %11, i32 noundef %22, i32 noundef %27)
  ret i32 %28
}

; Function Attrs: nounwind uwtable
define hidden void @luaK_nil(ptr noundef %0, i32 noundef %1, i32 noundef %2) #0 {
  %4 = alloca ptr, align 8
  %5 = alloca i32, align 4
  %6 = alloca i32, align 4
  %7 = alloca ptr, align 8
  %8 = alloca i32, align 4
  %9 = alloca i32, align 4
  %10 = alloca i32, align 4
  store ptr %0, ptr %4, align 8, !tbaa !4
  store i32 %1, ptr %5, align 4, !tbaa !9
  store i32 %2, ptr %6, align 4, !tbaa !9
  call void @llvm.lifetime.start.p0(i64 8, ptr %7) #6
  %11 = load ptr, ptr %4, align 8, !tbaa !4
  %12 = getelementptr inbounds nuw %struct.FuncState, ptr %11, i32 0, i32 6
  %13 = load i32, ptr %12, align 8, !tbaa !11
  %14 = load ptr, ptr %4, align 8, !tbaa !4
  %15 = getelementptr inbounds nuw %struct.FuncState, ptr %14, i32 0, i32 7
  %16 = load i32, ptr %15, align 4, !tbaa !19
  %17 = icmp sgt i32 %13, %16
  br i1 %17, label %18, label %92

18:                                               ; preds = %3
  %19 = load ptr, ptr %4, align 8, !tbaa !4
  %20 = getelementptr inbounds nuw %struct.FuncState, ptr %19, i32 0, i32 6
  %21 = load i32, ptr %20, align 8, !tbaa !11
  %22 = icmp eq i32 %21, 0
  br i1 %22, label %23, label %32

23:                                               ; preds = %18
  %24 = load i32, ptr %5, align 4, !tbaa !9
  %25 = load ptr, ptr %4, align 8, !tbaa !4
  %26 = getelementptr inbounds nuw %struct.FuncState, ptr %25, i32 0, i32 13
  %27 = load i8, ptr %26, align 2, !tbaa !20
  %28 = zext i8 %27 to i32
  %29 = icmp sge i32 %24, %28
  br i1 %29, label %30, label %31

30:                                               ; preds = %23
  store i32 1, ptr %8, align 4
  br label %100

31:                                               ; preds = %23
  br label %91

32:                                               ; preds = %18
  %33 = load ptr, ptr %4, align 8, !tbaa !4
  %34 = getelementptr inbounds nuw %struct.FuncState, ptr %33, i32 0, i32 0
  %35 = load ptr, ptr %34, align 8, !tbaa !21
  %36 = getelementptr inbounds nuw %struct.Proto, ptr %35, i32 0, i32 4
  %37 = load ptr, ptr %36, align 8, !tbaa !22
  %38 = load ptr, ptr %4, align 8, !tbaa !4
  %39 = getelementptr inbounds nuw %struct.FuncState, ptr %38, i32 0, i32 6
  %40 = load i32, ptr %39, align 8, !tbaa !11
  %41 = sub nsw i32 %40, 1
  %42 = sext i32 %41 to i64
  %43 = getelementptr inbounds i32, ptr %37, i64 %42
  store ptr %43, ptr %7, align 8, !tbaa !31
  %44 = load ptr, ptr %7, align 8, !tbaa !31
  %45 = load i32, ptr %44, align 4, !tbaa !9
  %46 = lshr i32 %45, 0
  %47 = and i32 %46, 63
  %48 = icmp eq i32 %47, 3
  br i1 %48, label %49, label %90

49:                                               ; preds = %32
  call void @llvm.lifetime.start.p0(i64 4, ptr %9) #6
  %50 = load ptr, ptr %7, align 8, !tbaa !31
  %51 = load i32, ptr %50, align 4, !tbaa !9
  %52 = lshr i32 %51, 6
  %53 = and i32 %52, 255
  store i32 %53, ptr %9, align 4, !tbaa !9
  call void @llvm.lifetime.start.p0(i64 4, ptr %10) #6
  %54 = load ptr, ptr %7, align 8, !tbaa !31
  %55 = load i32, ptr %54, align 4, !tbaa !9
  %56 = lshr i32 %55, 23
  %57 = and i32 %56, 511
  store i32 %57, ptr %10, align 4, !tbaa !9
  %58 = load i32, ptr %9, align 4, !tbaa !9
  %59 = load i32, ptr %5, align 4, !tbaa !9
  %60 = icmp sle i32 %58, %59
  br i1 %60, label %61, label %86

61:                                               ; preds = %49
  %62 = load i32, ptr %5, align 4, !tbaa !9
  %63 = load i32, ptr %10, align 4, !tbaa !9
  %64 = add nsw i32 %63, 1
  %65 = icmp sle i32 %62, %64
  br i1 %65, label %66, label %86

66:                                               ; preds = %61
  %67 = load i32, ptr %5, align 4, !tbaa !9
  %68 = load i32, ptr %6, align 4, !tbaa !9
  %69 = add nsw i32 %67, %68
  %70 = sub nsw i32 %69, 1
  %71 = load i32, ptr %10, align 4, !tbaa !9
  %72 = icmp sgt i32 %70, %71
  br i1 %72, label %73, label %85

73:                                               ; preds = %66
  %74 = load ptr, ptr %7, align 8, !tbaa !31
  %75 = load i32, ptr %74, align 4, !tbaa !9
  %76 = and i32 %75, 8388607
  %77 = load i32, ptr %5, align 4, !tbaa !9
  %78 = load i32, ptr %6, align 4, !tbaa !9
  %79 = add nsw i32 %77, %78
  %80 = sub nsw i32 %79, 1
  %81 = shl i32 %80, 23
  %82 = and i32 %81, -8388608
  %83 = or i32 %76, %82
  %84 = load ptr, ptr %7, align 8, !tbaa !31
  store i32 %83, ptr %84, align 4, !tbaa !9
  br label %85

85:                                               ; preds = %73, %66
  store i32 1, ptr %8, align 4
  br label %87

86:                                               ; preds = %61, %49
  store i32 0, ptr %8, align 4
  br label %87

87:                                               ; preds = %86, %85
  call void @llvm.lifetime.end.p0(i64 4, ptr %10) #6
  call void @llvm.lifetime.end.p0(i64 4, ptr %9) #6
  %88 = load i32, ptr %8, align 4
  switch i32 %88, label %100 [
    i32 0, label %89
  ]

89:                                               ; preds = %87
  br label %90

90:                                               ; preds = %89, %32
  br label %91

91:                                               ; preds = %90, %31
  br label %92

92:                                               ; preds = %91, %3
  %93 = load ptr, ptr %4, align 8, !tbaa !4
  %94 = load i32, ptr %5, align 4, !tbaa !9
  %95 = load i32, ptr %5, align 4, !tbaa !9
  %96 = load i32, ptr %6, align 4, !tbaa !9
  %97 = add nsw i32 %95, %96
  %98 = sub nsw i32 %97, 1
  %99 = call i32 @luaK_codeABC(ptr noundef %93, i32 noundef 3, i32 noundef %94, i32 noundef %98, i32 noundef 0)
  store i32 0, ptr %8, align 4
  br label %100

100:                                              ; preds = %92, %87, %30
  call void @llvm.lifetime.end.p0(i64 8, ptr %7) #6
  %101 = load i32, ptr %8, align 4
  switch i32 %101, label %103 [
    i32 0, label %102
    i32 1, label %102
  ]

102:                                              ; preds = %100, %100
  ret void

103:                                              ; preds = %100
  unreachable
}