; Function Attrs: nounwind uwtable
define hidden void @luaK_nil(ptr noundef captures(none) %0, i32 noundef %1, i32 noundef %2) local_unnamed_addr #0 {
  %4 = getelementptr inbounds nuw i8, ptr %0, i64 48
  %5 = load i32, ptr %4, align 8, !tbaa !4
  %6 = getelementptr inbounds nuw i8, ptr %0, i64 52
  %7 = load i32, ptr %6, align 4, !tbaa !17
  %8 = icmp sgt i32 %5, %7
  br i1 %8, label %9, label %38

9:                                                ; preds = %3
  %10 = icmp eq i32 %5, 0
  br i1 %10, label %11, label %15

11:                                               ; preds = %9
  %12 = getelementptr inbounds nuw i8, ptr %0, i64 74
  %13 = load i8, ptr %12, align 2, !tbaa !18
  %14 = zext i8 %13 to i32
  %.not29 = icmp slt i32 %1, %14
  br i1 %.not29, label %38, label %.critedge

15:                                               ; preds = %9
  %16 = load ptr, ptr %0, align 8, !tbaa !19
  %17 = getelementptr inbounds nuw i8, ptr %16, i64 24
  %18 = load ptr, ptr %17, align 8, !tbaa !20
  %19 = sext i32 %5 to i64
  %20 = getelementptr i32, ptr %18, i64 %19
  %21 = getelementptr i8, ptr %20, i64 -4
  %22 = load i32, ptr %21, align 4, !tbaa !29
  %23 = and i32 %22, 63
  %24 = icmp eq i32 %23, 3
  br i1 %24, label %25, label %38

25:                                               ; preds = %15
  %26 = lshr i32 %22, 6
  %27 = and i32 %26, 255
  %28 = lshr i32 %22, 23
  %.not = icmp sgt i32 %27, %1
  %29 = add nuw nsw i32 %28, 1
  %.not28 = icmp sgt i32 %1, %29
  %or.cond = select i1 %.not, i1 true, i1 %.not28
  br i1 %or.cond, label %38, label %30

30:                                               ; preds = %25
  %31 = add nsw i32 %2, %1
  %32 = add nsw i32 %31, -1
  %33 = icmp sgt i32 %32, %28
  br i1 %33, label %34, label %.critedge

34:                                               ; preds = %30
  %35 = and i32 %22, 8388547
  %36 = shl i32 %32, 23
  %37 = or disjoint i32 %35, %36
  store i32 %37, ptr %21, align 4, !tbaa !29
  br label %.critedge

38:                                               ; preds = %25, %11, %15, %3
  %39 = add nsw i32 %2, %1
  %40 = shl i32 %1, 6
  %41 = shl i32 %39, 23
  %42 = add i32 %41, -8388608
  %43 = or i32 %40, %42
  %44 = or disjoint i32 %43, 3
  %45 = getelementptr inbounds nuw i8, ptr %0, i64 24
  %46 = load ptr, ptr %45, align 8, !tbaa !30
  %47 = getelementptr inbounds nuw i8, ptr %46, i64 8
  %48 = load i32, ptr %47, align 8, !tbaa !31
  %49 = tail call fastcc i32 @luaK_code(ptr noundef nonnull %0, i32 noundef %44, i32 noundef %48)
  br label %.critedge

.critedge:                                        ; preds = %34, %30, %11, %38
  ret void
}